; ModuleID = 'source-C-CXX/44/2590.c'
source_filename = "source-C-CXX/44/2590.c"
target datalayout = "e-m:e-p270:32:32-p271:32:32-p272:64:64-i64:64-f80:128-n8:16:32:64-S128"
target triple = "x86_64-pc-linux-gnu"

@.str = private unnamed_addr constant [6 x i8] c"%s %s\00", align 1
@.str.1 = private unnamed_addr constant [4 x i8] c"%d\0A\00", align 1

; Function Attrs: nofree nounwind sspstrong uwtable
define dso_local i32 @main() local_unnamed_addr #0 {
  %1 = alloca [100 x i8], align 16
  %2 = alloca [100 x i8], align 16
  %3 = getelementptr inbounds [100 x i8], [100 x i8]* %1, i64 0, i64 0
  call void @llvm.lifetime.start.p0i8(i64 100, i8* nonnull %3) #4
  %4 = getelementptr inbounds [100 x i8], [100 x i8]* %2, i64 0, i64 0
  call void @llvm.lifetime.start.p0i8(i64 100, i8* nonnull %4) #4
  %5 = call i32 (i8*, ...) @__isoc99_scanf(i8* getelementptr inbounds ([6 x i8], [6 x i8]* @.str, i64 0, i64 0), i8* nonnull %3, i8* nonnull %4)
  %6 = call i64 @strlen(i8* noundef nonnull %3) #5
  %7 = trunc i64 %6 to i32
  %8 = call i64 @strlen(i8* noundef nonnull %4) #5
  %9 = trunc i64 %8 to i32
  %10 = icmp sgt i32 %7, 1
  %11 = load i8, i8* %3, align 16
  %12 = getelementptr inbounds [100 x i8], [100 x i8]* %1, i64 0, i64 1
  %13 = load i8, i8* %12, align 1
  %14 = icmp slt i32 %9, %7
  br i1 %14, label %48, label %15

15:                                               ; preds = %0
  %16 = icmp eq i32 %7, 1
  br i1 %16, label %17, label %27

17:                                               ; preds = %15
  %18 = and i64 %8, 4294967295
  br label %19

19:                                               ; preds = %17, %24
  %20 = phi i64 [ 0, %17 ], [ %25, %24 ]
  %21 = getelementptr inbounds [100 x i8], [100 x i8]* %2, i64 0, i64 %20
  %22 = load i8, i8* %21, align 1, !tbaa !5
  %23 = icmp eq i8 %22, %11
  br i1 %23, label %44, label %24

24:                                               ; preds = %19
  %25 = add nuw nsw i64 %20, 1
  %26 = icmp eq i64 %25, %18
  br i1 %26, label %48, label %19, !llvm.loop !8

27:                                               ; preds = %15
  br i1 %10, label %28, label %48

28:                                               ; preds = %27
  %29 = add i64 %8, 1
  %30 = sub i64 %29, %6
  %31 = and i64 %30, 4294967295
  br label %32

32:                                               ; preds = %28, %42
  %33 = phi i64 [ 0, %28 ], [ %37, %42 ]
  %34 = getelementptr inbounds [100 x i8], [100 x i8]* %2, i64 0, i64 %33
  %35 = load i8, i8* %34, align 1, !tbaa !5
  %36 = icmp eq i8 %35, %11
  %37 = add nuw nsw i64 %33, 1
  br i1 %36, label %38, label %42

38:                                               ; preds = %32
  %39 = getelementptr inbounds [100 x i8], [100 x i8]* %2, i64 0, i64 %37
  %40 = load i8, i8* %39, align 1, !tbaa !5
  %41 = icmp eq i8 %40, %13
  br i1 %41, label %44, label %42

42:                                               ; preds = %32, %38
  %43 = icmp eq i64 %37, %31
  br i1 %43, label %48, label %32, !llvm.loop !8

44:                                               ; preds = %38, %19
  %45 = phi i64 [ %20, %19 ], [ %33, %38 ]
  %46 = trunc i64 %45 to i32
  %47 = call i32 (i8*, ...) @printf(i8* nonnull dereferenceable(1) getelementptr inbounds ([4 x i8], [4 x i8]* @.str.1, i64 0, i64 0), i32 %46)
  br label %48

48:                                               ; preds = %42, %24, %44, %27, %0
  call void @llvm.lifetime.end.p0i8(i64 100, i8* nonnull %4) #4
  call void @llvm.lifetime.end.p0i8(i64 100, i8* nonnull %3) #4
  ret i32 0
}

; Function Attrs: argmemonly mustprogress nofree nosync nounwind willreturn
declare void @llvm.lifetime.start.p0i8(i64 immarg, i8* nocapture) #1

; Function Attrs: nofree nounwind
declare noundef i32 @__isoc99_scanf(i8* nocapture noundef readonly, ...) local_unnamed_addr #2

; Function Attrs: argmemonly mustprogress nofree nounwind readonly willreturn
declare i64 @strlen(i8* nocapture) local_unnamed_addr #3

; Function Attrs: nofree nounwind
declare noundef i32 @printf(i8* nocapture noundef readonly, ...) local_unnamed_addr #2

; Function Attrs: argmemonly mustprogress nofree nosync nounwind willreturn
declare void @llvm.lifetime.end.p0i8(i64 immarg, i8* nocapture) #1


!llvm.module.flags = !{!0, !1, !2, !3}
!llvm.ident = !{!4}

!0 = !{i32 1, !"wchar_size", i32 4}
!1 = !{i32 7, !"PIC Level", i32 2}
!2 = !{i32 7, !"PIE Level", i32 2}
!3 = !{i32 7, !"uwtable", i32 1}
!4 = !{!"clang version 13.0.0"}
!5 = !{!6, !6, i64 0}
!6 = !{!"omnipotent char", !7, i64 0}
!7 = !{!"Simple C/C++ TBAA"}
!8 = distinct !{!8, !9}
!9 = !{!"llvm.loop.mustprogress"}
